; Function Attrs: nounwind uwtable
define dso_local void @RelationClose(ptr noundef %0) local_unnamed_addr #0 {
  %2 = getelementptr inbounds nuw i8, ptr %0, i64 24
  %3 = load i32, ptr %2, align 8
  %4 = add i32 %3, -1
  store i32 %4, ptr %2, align 8
  %5 = load i32, ptr @Mode, align 4
  %6 = icmp eq i32 %5, 0
  br i1 %6, label %RelationDecrementReferenceCount.exit, label %7

7:                                                ; preds = %1
  %8 = load ptr, ptr @CurrentResourceOwner, align 8
  %9 = ptrtoint ptr %0 to i64
  tail call void @ResourceOwnerForget(ptr noundef %8, i64 noundef %9, ptr noundef nonnull @relref_resowner_desc) #13
  %.pr = load i32, ptr %2, align 8
  br label %RelationDecrementReferenceCount.exit

RelationDecrementReferenceCount.exit:             ; preds = %1, %7
  %10 = phi i32 [ %4, %1 ], [ %.pr, %7 ]
  %11 = icmp eq i32 %10, 0
  br i1 %11, label %12, label %RelationCloseCleanup.exit

12:                                               ; preds = %RelationDecrementReferenceCount.exit
  %13 = getelementptr inbounds nuw i8, ptr %0, i64 160
  %14 = load ptr, ptr %13, align 8
  %.not.i = icmp eq ptr %14, null
  br i1 %.not.i, label %19, label %15

15:                                               ; preds = %12
  %16 = getelementptr inbounds nuw i8, ptr %14, i64 32
  %17 = load ptr, ptr %16, align 8
  %.not8.i = icmp eq ptr %17, null
  br i1 %.not8.i, label %19, label %18

18:                                               ; preds = %15
  tail call void @MemoryContextDeleteChildren(ptr noundef nonnull %14) #13
  br label %19

19:                                               ; preds = %18, %15, %12
  %20 = getelementptr inbounds nuw i8, ptr %0, i64 176
  %21 = load ptr, ptr %20, align 8
  %.not9.i = icmp eq ptr %21, null
  br i1 %.not9.i, label %RelationCloseCleanup.exit, label %22

22:                                               ; preds = %19
  %23 = getelementptr inbounds nuw i8, ptr %21, i64 32
  %24 = load ptr, ptr %23, align 8
  %.not10.i = icmp eq ptr %24, null
  br i1 %.not10.i, label %RelationCloseCleanup.exit, label %25

25:                                               ; preds = %22
  tail call void @MemoryContextDeleteChildren(ptr noundef nonnull %21) #13
  br label %RelationCloseCleanup.exit

RelationCloseCleanup.exit:                        ; preds = %RelationDecrementReferenceCount.exit, %19, %22, %25
  ret void
}